target datalayout = "e-m:e-p270:32:32-p271:32:32-p272:64:64-i64:64-i128:128-f80:128-n8:16:32:64-S128"
target triple = "x86_64-pc-linux-gnu"

%struct.u_printf_stream_handler = type { ptr, ptr }
%struct.__va_list_tag = type { i32, i32, ptr, ptr }
%struct.UFILE = type { ptr, ptr, ptr, %struct.u_localized_string, [1024 x i16], i8, i32 }
%struct.u_localized_string = type { ptr, ptr, ptr, %struct.ULocaleBundle }
%struct.ULocaleBundle = type { ptr, [5 x ptr], i8 }

@_ZL16g_stream_handler = internal constant %struct.u_printf_stream_handler { ptr @_ZL14u_printf_writePvPKDsi, ptr @_ZL24u_printf_pad_and_justifyPvPK18u_printf_spec_infoPKDsi }, align 8

; Function Attrs: mustprogress uwtable
define i32 @u_vfprintf_u_77(ptr noundef %0, ptr noundef %1, ptr noundef %2) #0 {
  %4 = alloca ptr, align 8
  %5 = alloca ptr, align 8
  %6 = alloca ptr, align 8
  %7 = alloca i32, align 4
  store ptr %0, ptr %4, align 8, !tbaa !3
  store ptr %1, ptr %5, align 8, !tbaa !21
  store ptr %2, ptr %6, align 8, !tbaa !17
  call void @llvm.lifetime.start.p0(i64 4, ptr %7) #11
  store i32 0, ptr %7, align 4, !tbaa !15
  %8 = load ptr, ptr %5, align 8, !tbaa !21
  %9 = load ptr, ptr %4, align 8, !tbaa !3
  %10 = load ptr, ptr %4, align 8, !tbaa !3
  %11 = getelementptr inbounds nuw %struct.UFILE, ptr %10, i32 0, i32 3
  %12 = getelementptr inbounds nuw %struct.u_localized_string, ptr %11, i32 0, i32 3
  %13 = load ptr, ptr %6, align 8, !tbaa !17
  %14 = call i32 @u_printf_parse_77(ptr noundef @_ZL16g_stream_handler, ptr noundef %8, ptr noundef %9, ptr noundef null, ptr noundef %12, ptr noundef %7, ptr noundef %13)
  %15 = load i32, ptr %7, align 4, !tbaa !15
  call void @llvm.lifetime.end.p0(i64 4, ptr %7) #11
  ret i32 %15
}

; Function Attrs: mustprogress uwtable
define i32 @u_vfprintf_77(ptr noundef %0, ptr noundef %1, ptr noundef %2) #0 {
  %4 = alloca i32, align 4
  %5 = alloca ptr, align 8
  %6 = alloca ptr, align 8
  %7 = alloca ptr, align 8
  %8 = alloca i32, align 4
  %9 = alloca ptr, align 8
  %10 = alloca [128 x i16], align 16
  %11 = alloca i64, align 8
  %12 = alloca i32, align 4
  store ptr %0, ptr %5, align 8, !tbaa !3
  store ptr %1, ptr %6, align 8, !tbaa !13
  store ptr %2, ptr %7, align 8, !tbaa !17
  call void @llvm.lifetime.start.p0(i64 4, ptr %8) #11
  call void @llvm.lifetime.start.p0(i64 8, ptr %9) #11
  call void @llvm.lifetime.start.p0(i64 256, ptr %10) #11
  call void @llvm.lifetime.start.p0(i64 8, ptr %11) #11
  %13 = load ptr, ptr %6, align 8, !tbaa !13
  %14 = call i64 @strlen(ptr noundef %13) #12
  %15 = add i64 %14, 1
  store i64 %15, ptr %11, align 8, !tbaa !19
  %16 = load i64, ptr %11, align 8, !tbaa !19
  %17 = icmp uge i64 %16, 64
  br i1 %17, label %18, label %26

18:                                               ; preds = %3
  %19 = load i64, ptr %11, align 8, !tbaa !19
  %20 = mul i64 %19, 2
  %21 = call noalias ptr @uprv_malloc_77(i64 noundef %20) #13
  store ptr %21, ptr %9, align 8, !tbaa !21
  %22 = load ptr, ptr %9, align 8, !tbaa !21
  %23 = icmp eq ptr %22, null
  br i1 %23, label %24, label %25

24:                                               ; preds = %18
  store i32 0, ptr %4, align 4
  store i32 1, ptr %12, align 4
  br label %44

25:                                               ; preds = %18
  br label %28

26:                                               ; preds = %3
  %27 = getelementptr inbounds [128 x i16], ptr %10, i64 0, i64 0
  store ptr %27, ptr %9, align 8, !tbaa !21
  br label %28

28:                                               ; preds = %26, %25
  %29 = load ptr, ptr %6, align 8, !tbaa !13
  %30 = load ptr, ptr %9, align 8, !tbaa !21
  %31 = load i64, ptr %11, align 8, !tbaa !19
  %32 = trunc i64 %31 to i32
  call void @u_charsToUChars_77(ptr noundef %29, ptr noundef %30, i32 noundef %32)
  %33 = load ptr, ptr %5, align 8, !tbaa !3
  %34 = load ptr, ptr %9, align 8, !tbaa !21
  %35 = load ptr, ptr %7, align 8, !tbaa !17
  %36 = call i32 @u_vfprintf_u_77(ptr noundef %33, ptr noundef %34, ptr noundef %35)
  store i32 %36, ptr %8, align 4, !tbaa !15
  %37 = load ptr, ptr %9, align 8, !tbaa !21
  %38 = getelementptr inbounds [128 x i16], ptr %10, i64 0, i64 0
  %39 = icmp ne ptr %37, %38
  br i1 %39, label %40, label %42

40:                                               ; preds = %28
  %41 = load ptr, ptr %9, align 8, !tbaa !21
  call void @uprv_free_77(ptr noundef %41)
  br label %42

42:                                               ; preds = %40, %28
  %43 = load i32, ptr %8, align 4, !tbaa !15
  store i32 %43, ptr %4, align 4
  store i32 1, ptr %12, align 4
  br label %44

44:                                               ; preds = %42, %24
  call void @llvm.lifetime.end.p0(i64 8, ptr %11) #11
  call void @llvm.lifetime.end.p0(i64 256, ptr %10) #11
  call void @llvm.lifetime.end.p0(i64 8, ptr %9) #11
  call void @llvm.lifetime.end.p0(i64 4, ptr %8) #11
  %45 = load i32, ptr %4, align 4
  ret i32 %45
}

; Function Attrs: mustprogress uwtable
define i32 @u_fprintf_77(ptr noundef %0, ptr noundef %1, ...) #0 {
  %3 = alloca ptr, align 8
  %4 = alloca ptr, align 8
  %5 = alloca [1 x %struct.__va_list_tag], align 16
  %6 = alloca i32, align 4
  store ptr %0, ptr %3, align 8, !tbaa !3
  store ptr %1, ptr %4, align 8, !tbaa !13
  call void @llvm.lifetime.start.p0(i64 24, ptr %5) #11
  call void @llvm.lifetime.start.p0(i64 4, ptr %6) #11
  %7 = getelementptr inbounds [1 x %struct.__va_list_tag], ptr %5, i64 0, i64 0
  call void @llvm.va_start.p0(ptr %7)
  %8 = load ptr, ptr %3, align 8, !tbaa !3
  %9 = load ptr, ptr %4, align 8, !tbaa !13
  %10 = getelementptr inbounds [1 x %struct.__va_list_tag], ptr %5, i64 0, i64 0
  %11 = call i32 @u_vfprintf_77(ptr noundef %8, ptr noundef %9, ptr noundef %10)
  store i32 %11, ptr %6, align 4, !tbaa !15
  %12 = getelementptr inbounds [1 x %struct.__va_list_tag], ptr %5, i64 0, i64 0
  call void @llvm.va_end.p0(ptr %12)
  %13 = load i32, ptr %6, align 4, !tbaa !15
  call void @llvm.lifetime.end.p0(i64 4, ptr %6) #11
  call void @llvm.lifetime.end.p0(i64 24, ptr %5) #11
  ret i32 %13
}