; Function Attrs: mustprogress uwtable
define i32 @u_fprintf_77(ptr noundef %0, ptr noundef %1, ...) local_unnamed_addr #0 {
  %3 = alloca i32, align 4
  %4 = alloca [128 x i16], align 16
  %5 = alloca [1 x %struct.__va_list_tag], align 16
  call void @llvm.lifetime.start.p0(i64 24, ptr nonnull %5) #6
  call void @llvm.va_start.p0(ptr nonnull %5)
  call void @llvm.lifetime.start.p0(i64 256, ptr nonnull %4) #6
  %6 = call i64 @strlen(ptr noundef nonnull dereferenceable(1) %1) #7
  %7 = add i64 %6, 1
  %8 = icmp ugt i64 %7, 63
  br i1 %8, label %9, label %13

9:                                                ; preds = %2
  %10 = shl i64 %7, 1
  %11 = call noalias ptr @uprv_malloc_77(i64 noundef %10) #8
  %12 = icmp eq ptr %11, null
  br i1 %12, label %u_vfprintf_77.exit, label %13

13:                                               ; preds = %9, %2
  %.013.i = phi ptr [ %11, %9 ], [ %4, %2 ]
  %14 = trunc i64 %7 to i32
  call void @u_charsToUChars_77(ptr noundef nonnull %1, ptr noundef nonnull %.013.i, i32 noundef %14)
  call void @llvm.lifetime.start.p0(i64 4, ptr nonnull %3) #6
  store i32 0, ptr %3, align 4, !tbaa !10
  %15 = getelementptr inbounds nuw i8, ptr %0, i64 48
  %16 = call i32 @u_printf_parse_77(ptr noundef nonnull @_ZL16g_stream_handler, ptr noundef nonnull %.013.i, ptr noundef %0, ptr noundef null, ptr noundef nonnull %15, ptr noundef nonnull %3, ptr noundef nonnull %5)
  %17 = load i32, ptr %3, align 4, !tbaa !10
  call void @llvm.lifetime.end.p0(i64 4, ptr nonnull %3) #6
  %.not.i = icmp eq ptr %.013.i, %4
  br i1 %.not.i, label %u_vfprintf_77.exit, label %18

18:                                               ; preds = %13
  call void @uprv_free_77(ptr noundef nonnull %.013.i)
  br label %u_vfprintf_77.exit

u_vfprintf_77.exit:                               ; preds = %9, %13, %18
  %.0.i = phi i32 [ 0, %9 ], [ %17, %18 ], [ %17, %13 ]
  call void @llvm.lifetime.end.p0(i64 256, ptr nonnull %4) #6
  call void @llvm.va_end.p0(ptr nonnull %5)
  call void @llvm.lifetime.end.p0(i64 24, ptr nonnull %5) #6
  ret i32 %.0.i
}